target datalayout = "e-m:e-p270:32:32-p271:32:32-p272:64:64-i64:64-i128:128-f80:128-n8:16:32:64-S128"
target triple = "x86_64-pc-linux-gnu"

%struct.PROV_EC_CTX = type { ptr, ptr, ptr, ptr, i32, i32, ptr, i64, ptr, ptr }
%struct.ossl_param_st = type { ptr, i32, ptr, i64, i64 }

@.str.1 = private unnamed_addr constant [50 x i8] c"../openssl/providers/implementations/kem/ec_kem.c\00", align 1
@.str.14 = private unnamed_addr constant [5 x i8] c"ikme\00", align 1
@.str.15 = private unnamed_addr constant [10 x i8] c"operation\00", align 1

; Function Attrs: inlinehint nounwind uwtable
define internal i32 @ossl_param_is_empty(ptr noundef %0) #4 {
  %2 = alloca ptr, align 8
  store ptr %0, ptr %2, align 8, !tbaa !34
  %3 = load ptr, ptr %2, align 8, !tbaa !34
  %4 = icmp eq ptr %3, null
  br i1 %4, label %10, label %5

5:                                                ; preds = %1
  %6 = load ptr, ptr %2, align 8, !tbaa !34
  %7 = getelementptr inbounds nuw %struct.ossl_param_st, ptr %6, i32 0, i32 0
  %8 = load ptr, ptr %7, align 8, !tbaa !58
  %9 = icmp eq ptr %8, null
  br label %10

10:                                               ; preds = %5, %1
  %11 = phi i1 [ true, %1 ], [ %9, %5 ]
  %12 = zext i1 %11 to i32
  ret i32 %12
}

; Function Attrs: nounwind uwtable
define internal i32 @eckem_set_ctx_params(ptr noundef %0, ptr noundef %1) #0 {
  %3 = alloca i32, align 4
  %4 = alloca ptr, align 8
  %5 = alloca ptr, align 8
  %6 = alloca ptr, align 8
  %7 = alloca ptr, align 8
  %8 = alloca i32, align 4
  %9 = alloca i32, align 4
  %10 = alloca ptr, align 8
  %11 = alloca i64, align 8
  store ptr %0, ptr %4, align 8, !tbaa !19
  store ptr %1, ptr %5, align 8, !tbaa !34
  call void @llvm.lifetime.start.p0(i64 8, ptr %6) #5
  %12 = load ptr, ptr %4, align 8, !tbaa !19
  store ptr %12, ptr %6, align 8, !tbaa !19
  call void @llvm.lifetime.start.p0(i64 8, ptr %7) #5
  call void @llvm.lifetime.start.p0(i64 4, ptr %8) #5
  %13 = load ptr, ptr %5, align 8, !tbaa !34
  %14 = call i32 @ossl_param_is_empty(ptr noundef %13)
  %15 = icmp ne i32 %14, 0
  br i1 %15, label %16, label %17

16:                                               ; preds = %2
  store i32 1, ptr %3, align 4
  store i32 1, ptr %9, align 4
  br label %78

17:                                               ; preds = %2
  %18 = load ptr, ptr %5, align 8, !tbaa !34
  %19 = call ptr @OSSL_PARAM_locate_const(ptr noundef %18, ptr noundef @.str.14)
  store ptr %19, ptr %7, align 8, !tbaa !34
  %20 = load ptr, ptr %7, align 8, !tbaa !34
  %21 = icmp ne ptr %20, null
  br i1 %21, label %22, label %54

22:                                               ; preds = %17
  call void @llvm.lifetime.start.p0(i64 8, ptr %10) #5
  store ptr null, ptr %10, align 8, !tbaa !19
  call void @llvm.lifetime.start.p0(i64 8, ptr %11) #5
  store i64 0, ptr %11, align 8, !tbaa !12
  %23 = load ptr, ptr %7, align 8, !tbaa !34
  %24 = getelementptr inbounds nuw %struct.ossl_param_st, ptr %23, i32 0, i32 2
  %25 = load ptr, ptr %24, align 8, !tbaa !41
  %26 = icmp ne ptr %25, null
  br i1 %26, label %27, label %38

27:                                               ; preds = %22
  %28 = load ptr, ptr %7, align 8, !tbaa !34
  %29 = getelementptr inbounds nuw %struct.ossl_param_st, ptr %28, i32 0, i32 3
  %30 = load i64, ptr %29, align 8, !tbaa !43
  %31 = icmp ne i64 %30, 0
  br i1 %31, label %32, label %38

32:                                               ; preds = %27
  %33 = load ptr, ptr %7, align 8, !tbaa !34
  %34 = call i32 @OSSL_PARAM_get_octet_string(ptr noundef %33, ptr noundef %10, i64 noundef 0, ptr noundef %11)
  %35 = icmp ne i32 %34, 0
  br i1 %35, label %37, label %36

36:                                               ; preds = %32
  store i32 0, ptr %3, align 4
  store i32 1, ptr %9, align 4
  br label %51

37:                                               ; preds = %32
  br label %38

38:                                               ; preds = %37, %27, %22
  %39 = load ptr, ptr %6, align 8, !tbaa !19
  %40 = getelementptr inbounds nuw %struct.PROV_EC_CTX, ptr %39, i32 0, i32 6
  %41 = load ptr, ptr %40, align 8, !tbaa !39
  %42 = load ptr, ptr %6, align 8, !tbaa !19
  %43 = getelementptr inbounds nuw %struct.PROV_EC_CTX, ptr %42, i32 0, i32 7
  %44 = load i64, ptr %43, align 8, !tbaa !40
  call void @CRYPTO_clear_free(ptr noundef %41, i64 noundef %44, ptr noundef @.str.1, i32 noundef 304)
  %45 = load ptr, ptr %10, align 8, !tbaa !19
  %46 = load ptr, ptr %6, align 8, !tbaa !19
  %47 = getelementptr inbounds nuw %struct.PROV_EC_CTX, ptr %46, i32 0, i32 6
  store ptr %45, ptr %47, align 8, !tbaa !39
  %48 = load i64, ptr %11, align 8, !tbaa !12
  %49 = load ptr, ptr %6, align 8, !tbaa !19
  %50 = getelementptr inbounds nuw %struct.PROV_EC_CTX, ptr %49, i32 0, i32 7
  store i64 %48, ptr %50, align 8, !tbaa !40
  store i32 0, ptr %9, align 4
  br label %51

51:                                               ; preds = %38, %36
  call void @llvm.lifetime.end.p0(i64 8, ptr %11) #5
  call void @llvm.lifetime.end.p0(i64 8, ptr %10) #5
  %52 = load i32, ptr %9, align 4
  switch i32 %52, label %78 [
    i32 0, label %53
  ]

53:                                               ; preds = %51
  br label %54

54:                                               ; preds = %53, %17
  %55 = load ptr, ptr %5, align 8, !tbaa !34
  %56 = call ptr @OSSL_PARAM_locate_const(ptr noundef %55, ptr noundef @.str.15)
  store ptr %56, ptr %7, align 8, !tbaa !34
  %57 = load ptr, ptr %7, align 8, !tbaa !34
  %58 = icmp ne ptr %57, null
  br i1 %58, label %59, label %77

59:                                               ; preds = %54
  %60 = load ptr, ptr %7, align 8, !tbaa !34
  %61 = getelementptr inbounds nuw %struct.ossl_param_st, ptr %60, i32 0, i32 1
  %62 = load i32, ptr %61, align 8, !tbaa !44
  %63 = icmp ne i32 %62, 4
  br i1 %63, label %64, label %65

64:                                               ; preds = %59
  store i32 0, ptr %3, align 4
  store i32 1, ptr %9, align 4
  br label %78

65:                                               ; preds = %59
  %66 = load ptr, ptr %7, align 8, !tbaa !34
  %67 = getelementptr inbounds nuw %struct.ossl_param_st, ptr %66, i32 0, i32 2
  %68 = load ptr, ptr %67, align 8, !tbaa !41
  %69 = call i32 @ossl_eckem_modename2id(ptr noundef %68)
  store i32 %69, ptr %8, align 4, !tbaa !14
  %70 = load i32, ptr %8, align 4, !tbaa !14
  %71 = icmp eq i32 %70, 0
  br i1 %71, label %72, label %73

72:                                               ; preds = %65
  store i32 0, ptr %3, align 4
  store i32 1, ptr %9, align 4
  br label %78

73:                                               ; preds = %65
  %74 = load i32, ptr %8, align 4, !tbaa !14
  %75 = load ptr, ptr %6, align 8, !tbaa !19
  %76 = getelementptr inbounds nuw %struct.PROV_EC_CTX, ptr %75, i32 0, i32 4
  store i32 %74, ptr %76, align 8, !tbaa !38
  br label %77

77:                                               ; preds = %73, %54
  store i32 1, ptr %3, align 4
  store i32 1, ptr %9, align 4
  br label %78

78:                                               ; preds = %77, %72, %64, %51, %16
  call void @llvm.lifetime.end.p0(i64 4, ptr %8) #5
  call void @llvm.lifetime.end.p0(i64 8, ptr %7) #5
  call void @llvm.lifetime.end.p0(i64 8, ptr %6) #5
  %79 = load i32, ptr %3, align 4
  ret i32 %79
}