; Function Attrs: nounwind uwtable
define internal range(i32 0, 2) i32 @eckem_set_ctx_params(ptr noundef captures(none) %0, ptr noundef %1) #0 {
  %3 = alloca ptr, align 8
  %4 = alloca i64, align 8
  %5 = icmp eq ptr %1, null
  br i1 %5, label %ossl_param_is_empty.exit.thread, label %ossl_param_is_empty.exit

ossl_param_is_empty.exit:                         ; preds = %2
  %6 = load ptr, ptr %1, align 8, !tbaa !33
  %.not = icmp eq ptr %6, null
  br i1 %.not, label %ossl_param_is_empty.exit.thread, label %7

7:                                                ; preds = %ossl_param_is_empty.exit
  %8 = tail call ptr @OSSL_PARAM_locate_const(ptr noundef nonnull %1, ptr noundef nonnull @.str.14) #5
  %.not23 = icmp eq ptr %8, null
  br i1 %.not23, label %24, label %9

9:                                                ; preds = %7
  call void @llvm.lifetime.start.p0(i64 8, ptr nonnull %3) #5
  store ptr null, ptr %3, align 8, !tbaa !35
  call void @llvm.lifetime.start.p0(i64 8, ptr nonnull %4) #5
  store i64 0, ptr %4, align 8, !tbaa !26
  %10 = getelementptr inbounds nuw i8, ptr %8, i64 16
  %11 = load ptr, ptr %10, align 8, !tbaa !36
  %.not24 = icmp eq ptr %11, null
  br i1 %.not24, label %.critedge, label %12

12:                                               ; preds = %9
  %13 = getelementptr inbounds nuw i8, ptr %8, i64 24
  %14 = load i64, ptr %13, align 8, !tbaa !37
  %.not25 = icmp eq i64 %14, 0
  br i1 %.not25, label %.critedge, label %15

15:                                               ; preds = %12
  %16 = call i32 @OSSL_PARAM_get_octet_string(ptr noundef nonnull %8, ptr noundef nonnull %3, i64 noundef 0, ptr noundef nonnull %4) #5
  %.not26 = icmp eq i32 %16, 0
  br i1 %.not26, label %23, label %.critedge

.critedge:                                        ; preds = %15, %12, %9
  %17 = getelementptr inbounds nuw i8, ptr %0, i64 40
  %18 = load ptr, ptr %17, align 8, !tbaa !27
  %19 = getelementptr inbounds nuw i8, ptr %0, i64 48
  %20 = load i64, ptr %19, align 8, !tbaa !28
  call void @CRYPTO_clear_free(ptr noundef %18, i64 noundef %20, ptr noundef nonnull @.str.1, i32 noundef 304) #5
  %21 = load ptr, ptr %3, align 8, !tbaa !35
  store ptr %21, ptr %17, align 8, !tbaa !27
  %22 = load i64, ptr %4, align 8, !tbaa !26
  store i64 %22, ptr %19, align 8, !tbaa !28
  call void @llvm.lifetime.end.p0(i64 8, ptr nonnull %4) #5
  call void @llvm.lifetime.end.p0(i64 8, ptr nonnull %3) #5
  br label %24

23:                                               ; preds = %15
  call void @llvm.lifetime.end.p0(i64 8, ptr nonnull %4) #5
  call void @llvm.lifetime.end.p0(i64 8, ptr nonnull %3) #5
  br label %ossl_param_is_empty.exit.thread

24:                                               ; preds = %.critedge, %7
  %25 = call ptr @OSSL_PARAM_locate_const(ptr noundef nonnull %1, ptr noundef nonnull @.str.15) #5
  %.not27 = icmp eq ptr %25, null
  br i1 %.not27, label %ossl_param_is_empty.exit.thread, label %26

26:                                               ; preds = %24
  %27 = getelementptr inbounds nuw i8, ptr %25, i64 8
  %28 = load i32, ptr %27, align 8, !tbaa !38
  %.not28 = icmp eq i32 %28, 4
  br i1 %.not28, label %29, label %ossl_param_is_empty.exit.thread

29:                                               ; preds = %26
  %30 = getelementptr inbounds nuw i8, ptr %25, i64 16
  %31 = load ptr, ptr %30, align 8, !tbaa !36
  %32 = call i32 @ossl_eckem_modename2id(ptr noundef %31) #5
  %33 = icmp eq i32 %32, 0
  br i1 %33, label %ossl_param_is_empty.exit.thread, label %34

34:                                               ; preds = %29
  %35 = getelementptr inbounds nuw i8, ptr %0, i64 32
  store i32 %32, ptr %35, align 8, !tbaa !23
  br label %ossl_param_is_empty.exit.thread

ossl_param_is_empty.exit.thread:                  ; preds = %2, %24, %34, %29, %26, %23, %ossl_param_is_empty.exit
  %.019 = phi i32 [ 0, %23 ], [ 1, %ossl_param_is_empty.exit ], [ 0, %26 ], [ 0, %29 ], [ 1, %34 ], [ 1, %24 ], [ 1, %2 ]
  ret i32 %.019
}